target datalayout = "e-m:e-p270:32:32-p271:32:32-p272:64:64-i64:64-i128:128-f80:128-n8:16:32:64-S128"
target triple = "x86_64-pc-linux-gnu"

%struct.dfvm_value_t = type { i32, %union.anon, i32 }
%union.anon = type { ptr }
%struct.epan_dfilter = type { ptr, i32, ptr, ptr, i32, ptr, ptr, ptr, ptr, ptr, ptr, ptr, ptr }
%struct._GPtrArray = type { ptr, i32 }
%struct._header_field_info = type { ptr, ptr, i32, i32, ptr, i64, ptr, i32, i32, i32, i32, ptr }
%struct.field_info = type { ptr, i32, i32, i32, i32, i32, i32, ptr, ptr, ptr, i32, i32 }
%struct.df_cell_t = type { ptr }

; Function Attrs: nounwind uwtable
define hidden ptr @dfvm_get_raw_fvalue(ptr noundef %0) #0 {
  %2 = alloca ptr, align 8
  %3 = alloca ptr, align 8
  %4 = alloca ptr, align 8
  %5 = alloca ptr, align 8
  %6 = alloca i32, align 4
  %7 = alloca i32, align 4
  store ptr %0, ptr %3, align 8
  %8 = load ptr, ptr %3, align 8
  %9 = getelementptr inbounds %struct.field_info, ptr %8, i32 0, i32 8
  %10 = load ptr, ptr %9, align 8
  %11 = load ptr, ptr %3, align 8
  %12 = getelementptr inbounds %struct.field_info, ptr %11, i32 0, i32 1
  %13 = load i32, ptr %12, align 8
  %14 = call i32 @tvb_captured_length_remaining(ptr noundef %10, i32 noundef %13)
  store i32 %14, ptr %7, align 4
  %15 = load i32, ptr %7, align 4
  %16 = icmp slt i32 %15, 0
  br i1 %16, label %17, label %18

17:                                               ; preds = %1
  store ptr null, ptr %2, align 8
  br label %44

18:                                               ; preds = %1
  %19 = load ptr, ptr %3, align 8
  %20 = getelementptr inbounds %struct.field_info, ptr %19, i32 0, i32 2
  %21 = load i32, ptr %20, align 4
  store i32 %21, ptr %6, align 4
  %22 = load i32, ptr %6, align 4
  %23 = load i32, ptr %7, align 4
  %24 = icmp sgt i32 %22, %23
  br i1 %24, label %25, label %27

25:                                               ; preds = %18
  %26 = load i32, ptr %7, align 4
  store i32 %26, ptr %6, align 4
  br label %27

27:                                               ; preds = %25, %18
  %28 = call ptr @g_byte_array_new()
  store ptr %28, ptr %4, align 8
  %29 = load ptr, ptr %4, align 8
  %30 = load ptr, ptr %3, align 8
  %31 = getelementptr inbounds %struct.field_info, ptr %30, i32 0, i32 8
  %32 = load ptr, ptr %31, align 8
  %33 = load ptr, ptr %3, align 8
  %34 = getelementptr inbounds %struct.field_info, ptr %33, i32 0, i32 1
  %35 = load i32, ptr %34, align 8
  %36 = load i32, ptr %6, align 4
  %37 = call ptr @tvb_get_ptr(ptr noundef %32, i32 noundef %35, i32 noundef %36)
  %38 = load i32, ptr %6, align 4
  %39 = call ptr @g_byte_array_append(ptr noundef %29, ptr noundef %37, i32 noundef %38)
  %40 = call ptr @fvalue_new(i32 noundef 30)
  store ptr %40, ptr %5, align 8
  %41 = load ptr, ptr %5, align 8
  %42 = load ptr, ptr %4, align 8
  call void @fvalue_set_byte_array(ptr noundef %41, ptr noundef %42)
  %43 = load ptr, ptr %5, align 8
  store ptr %43, ptr %2, align 8
  br label %44

44:                                               ; preds = %27, %17
  %45 = load ptr, ptr %2, align 8
  ret ptr %45
}

; Function Attrs: nounwind uwtable
define internal zeroext i1 @read_tree_finfos(ptr noundef %0, ptr noundef %1, ptr noundef %2, ptr noundef %3, i1 noundef zeroext %4) #0 {
  %6 = alloca i1, align 1
  %7 = alloca ptr, align 8
  %8 = alloca ptr, align 8
  %9 = alloca ptr, align 8
  %10 = alloca ptr, align 8
  %11 = alloca i8, align 1
  %12 = alloca ptr, align 8
  %13 = alloca ptr, align 8
  %14 = alloca ptr, align 8
  %15 = alloca i32, align 4
  store ptr %0, ptr %7, align 8
  store ptr %1, ptr %8, align 8
  store ptr %2, ptr %9, align 8
  store ptr %3, ptr %10, align 8
  %16 = zext i1 %4 to i8
  store i8 %16, ptr %11, align 1
  %17 = load ptr, ptr %8, align 8
  %18 = load ptr, ptr %9, align 8
  %19 = getelementptr inbounds %struct._header_field_info, ptr %18, i32 0, i32 7
  %20 = load i32, ptr %19, align 8
  %21 = call ptr @proto_get_finfo_ptr_array(ptr noundef %17, i32 noundef %20)
  store ptr %21, ptr %12, align 8
  %22 = load ptr, ptr %12, align 8
  %23 = icmp eq ptr %22, null
  br i1 %23, label %35, label %24

24:                                               ; preds = %5
  %25 = load ptr, ptr %12, align 8
  %26 = icmp ne ptr %25, null
  br i1 %26, label %27, label %31

27:                                               ; preds = %24
  %28 = load ptr, ptr %12, align 8
  %29 = getelementptr inbounds %struct._GPtrArray, ptr %28, i32 0, i32 1
  %30 = load i32, ptr %29, align 8
  br label %32

31:                                               ; preds = %24
  br label %32

32:                                               ; preds = %31, %27
  %33 = phi i32 [ %30, %27 ], [ 0, %31 ]
  %34 = icmp eq i32 %33, 0
  br i1 %34, label %35, label %36

35:                                               ; preds = %32, %5
  store i1 false, ptr %6, align 1
  br label %78

36:                                               ; preds = %32
  %37 = load ptr, ptr %10, align 8
  %38 = icmp ne ptr %37, null
  br i1 %38, label %39, label %47

39:                                               ; preds = %36
  %40 = load ptr, ptr %7, align 8
  %41 = load ptr, ptr %12, align 8
  %42 = load ptr, ptr %10, align 8
  %43 = load i8, ptr %11, align 1
  %44 = trunc i8 %43 to i1
  %45 = call i64 @filter_finfo_fvalues(ptr noundef %40, ptr noundef %41, ptr noundef %42, i1 noundef zeroext %44)
  %46 = icmp ugt i64 %45, 0
  store i1 %46, ptr %6, align 1
  br label %78

47:                                               ; preds = %36
  store i32 0, ptr %15, align 4
  br label %48

48:                                               ; preds = %74, %47
  %49 = load i32, ptr %15, align 4
  %50 = load ptr, ptr %12, align 8
  %51 = getelementptr inbounds %struct._GPtrArray, ptr %50, i32 0, i32 1
  %52 = load i32, ptr %51, align 8
  %53 = icmp ult i32 %49, %52
  br i1 %53, label %54, label %77

54:                                               ; preds = %48
  %55 = load ptr, ptr %12, align 8
  %56 = getelementptr inbounds %struct._GPtrArray, ptr %55, i32 0, i32 0
  %57 = load ptr, ptr %56, align 8
  %58 = load i32, ptr %15, align 4
  %59 = zext i32 %58 to i64
  %60 = getelementptr ptr, ptr %57, i64 %59
  %61 = load ptr, ptr %60, align 8
  store ptr %61, ptr %13, align 8
  %62 = load i8, ptr %11, align 1
  %63 = trunc i8 %62 to i1
  br i1 %63, label %64, label %67

64:                                               ; preds = %54
  %65 = load ptr, ptr %13, align 8
  %66 = call ptr @dfvm_get_raw_fvalue(ptr noundef %65)
  store ptr %66, ptr %14, align 8
  br label %71

67:                                               ; preds = %54
  %68 = load ptr, ptr %13, align 8
  %69 = getelementptr inbounds %struct.field_info, ptr %68, i32 0, i32 9
  %70 = load ptr, ptr %69, align 8
  store ptr %70, ptr %14, align 8
  br label %71

71:                                               ; preds = %67, %64
  %72 = load ptr, ptr %7, align 8
  %73 = load ptr, ptr %14, align 8
  call void @df_cell_append(ptr noundef %72, ptr noundef %73)
  br label %74

74:                                               ; preds = %71
  %75 = load i32, ptr %15, align 4
  %76 = add i32 %75, 1
  store i32 %76, ptr %15, align 4
  br label %48, !llvm.loop !26

77:                                               ; preds = %48
  store i1 true, ptr %6, align 1
  br label %78

78:                                               ; preds = %77, %39, %35
  %79 = load i1, ptr %6, align 1
  ret i1 %79
}

; Function Attrs: nounwind uwtable
define internal zeroext i1 @read_tree(ptr noundef %0, ptr noundef %1, ptr noundef %2, ptr noundef %3, ptr noundef %4) #0 {
  %6 = alloca i1, align 1
  %7 = alloca ptr, align 8
  %8 = alloca ptr, align 8
  %9 = alloca ptr, align 8
  %10 = alloca ptr, align 8
  %11 = alloca ptr, align 8
  %12 = alloca ptr, align 8
  %13 = alloca i8, align 1
  %14 = alloca ptr, align 8
  %15 = alloca ptr, align 8
  %16 = alloca i32, align 4
  store ptr %0, ptr %7, align 8
  store ptr %1, ptr %8, align 8
  store ptr %2, ptr %9, align 8
  store ptr %3, ptr %10, align 8
  store ptr %4, ptr %11, align 8
  store ptr null, ptr %12, align 8
  %17 = load ptr, ptr %9, align 8
  %18 = getelementptr inbounds %struct.dfvm_value_t, ptr %17, i32 0, i32 1
  %19 = load ptr, ptr %18, align 8
  store ptr %19, ptr %15, align 8
  %20 = load ptr, ptr %9, align 8
  %21 = getelementptr inbounds %struct.dfvm_value_t, ptr %20, i32 0, i32 0
  %22 = load i32, ptr %21, align 8
  %23 = icmp eq i32 %22, 3
  %24 = zext i1 %23 to i8
  store i8 %24, ptr %13, align 1
  %25 = load ptr, ptr %10, align 8
  %26 = getelementptr inbounds %struct.dfvm_value_t, ptr %25, i32 0, i32 1
  %27 = load i32, ptr %26, align 8
  store i32 %27, ptr %16, align 4
  %28 = load ptr, ptr %11, align 8
  %29 = icmp ne ptr %28, null
  br i1 %29, label %30, label %34

30:                                               ; preds = %5
  %31 = load ptr, ptr %11, align 8
  %32 = getelementptr inbounds %struct.dfvm_value_t, ptr %31, i32 0, i32 1
  %33 = load ptr, ptr %32, align 8
  store ptr %33, ptr %12, align 8
  br label %34

34:                                               ; preds = %30, %5
  %35 = load ptr, ptr %7, align 8
  %36 = getelementptr inbounds %struct.epan_dfilter, ptr %35, i32 0, i32 2
  %37 = load ptr, ptr %36, align 8
  %38 = load i32, ptr %16, align 4
  %39 = sext i32 %38 to i64
  %40 = getelementptr %struct.df_cell_t, ptr %37, i64 %39
  store ptr %40, ptr %14, align 8
  %41 = load ptr, ptr %14, align 8
  %42 = call zeroext i1 @df_cell_is_null(ptr noundef %41)
  br i1 %42, label %47, label %43

43:                                               ; preds = %34
  %44 = load ptr, ptr %14, align 8
  %45 = call zeroext i1 @df_cell_is_empty(ptr noundef %44)
  %46 = xor i1 %45, true
  store i1 %46, ptr %6, align 1
  br label %73

47:                                               ; preds = %34
  %48 = load i8, ptr %13, align 1
  %49 = trunc i8 %48 to i1
  br i1 %49, label %50, label %52

50:                                               ; preds = %47
  %51 = load ptr, ptr %14, align 8
  call void @df_cell_init(ptr noundef %51, i1 noundef zeroext true)
  br label %54

52:                                               ; preds = %47
  %53 = load ptr, ptr %14, align 8
  call void @df_cell_init(ptr noundef %53, i1 noundef zeroext false)
  br label %54

54:                                               ; preds = %52, %50
  br label %55

55:                                               ; preds = %58, %54
  %56 = load ptr, ptr %15, align 8
  %57 = icmp ne ptr %56, null
  br i1 %57, label %58, label %69

58:                                               ; preds = %55
  %59 = load ptr, ptr %14, align 8
  %60 = load ptr, ptr %8, align 8
  %61 = load ptr, ptr %15, align 8
  %62 = load ptr, ptr %12, align 8
  %63 = load i8, ptr %13, align 1
  %64 = trunc i8 %63 to i1
  %65 = call zeroext i1 @read_tree_finfos(ptr noundef %59, ptr noundef %60, ptr noundef %61, ptr noundef %62, i1 noundef zeroext %64)
  %66 = load ptr, ptr %15, align 8
  %67 = getelementptr inbounds %struct._header_field_info, ptr %66, i32 0, i32 11
  %68 = load ptr, ptr %67, align 8
  store ptr %68, ptr %15, align 8
  br label %55, !llvm.loop !10

69:                                               ; preds = %55
  %70 = load ptr, ptr %14, align 8
  %71 = call zeroext i1 @df_cell_is_empty(ptr noundef %70)
  %72 = xor i1 %71, true
  store i1 %72, ptr %6, align 1
  br label %73

73:                                               ; preds = %69, %43
  %74 = load i1, ptr %6, align 1
  ret i1 %74
}