; Function Attrs: nounwind uwtable
define internal fastcc zeroext i1 @read_tree(ptr noundef readonly captures(none) %0, ptr noundef %1, i32 %.0.val, ptr readonly %.8.val, i32 %.8.val1, ptr noundef readonly %2) unnamed_addr #2 {
  %4 = icmp eq i32 %.0.val, 3
  %.not = icmp eq ptr %2, null
  br i1 %.not, label %9, label %5

5:                                                ; preds = %3
  %6 = getelementptr inbounds nuw i8, ptr %2, i64 8
  %7 = load ptr, ptr %6, align 8
  %8 = freeze ptr %7
  br label %9

9:                                                ; preds = %5, %3
  %.021 = phi ptr [ %8, %5 ], [ null, %3 ]
  %10 = getelementptr inbounds nuw i8, ptr %0, i64 16
  %11 = load ptr, ptr %10, align 8
  %12 = sext i32 %.8.val1 to i64
  %13 = getelementptr %struct.df_cell_t, ptr %11, i64 %12
  %14 = tail call zeroext i1 @df_cell_is_null(ptr noundef %13) #11
  br i1 %14, label %15, label %._crit_edge

15:                                               ; preds = %9
  tail call void @df_cell_init(ptr noundef %13, i1 noundef zeroext %4) #11
  %.not234 = icmp eq ptr %.8.val, null
  br i1 %.not234, label %._crit_edge, label %.lr.ph

.lr.ph:                                           ; preds = %15
  %.not.i = icmp eq ptr %.021, null
  br i1 %.not.i, label %.lr.ph.split.us, label %.lr.ph.split

.lr.ph.split.us:                                  ; preds = %.lr.ph
  br i1 %4, label %.lr.ph.split.us.split.us, label %.lr.ph.split.us.split

.lr.ph.split.us.split.us:                         ; preds = %.lr.ph.split.us, %read_tree_finfos.exit.us.us
  %.0205.us.us = phi ptr [ %45, %read_tree_finfos.exit.us.us ], [ %.8.val, %.lr.ph.split.us ]
  %16 = getelementptr i8, ptr %.0205.us.us, i64 48
  %.020.val.us.us = load i32, ptr %16, align 8
  %17 = tail call ptr @proto_get_finfo_ptr_array(ptr noundef %1, i32 noundef %.020.val.us.us) #11
  %18 = icmp eq ptr %17, null
  br i1 %18, label %read_tree_finfos.exit.us.us, label %19

19:                                               ; preds = %.lr.ph.split.us.split.us
  %20 = getelementptr inbounds nuw i8, ptr %17, i64 8
  %21 = load i32, ptr %20, align 8
  %22 = icmp eq i32 %21, 0
  br i1 %22, label %read_tree_finfos.exit.us.us, label %.lr.ph.split.us.i.us.us

.lr.ph.split.us.i.us.us:                          ; preds = %19, %dfvm_get_raw_fvalue.exit.us.i.us.us
  %indvars.iv5.i.us.us = phi i64 [ %indvars.iv.next6.i.us.us, %dfvm_get_raw_fvalue.exit.us.i.us.us ], [ 0, %19 ]
  %23 = load ptr, ptr %17, align 8
  %24 = getelementptr ptr, ptr %23, i64 %indvars.iv5.i.us.us
  %25 = load ptr, ptr %24, align 8
  %26 = getelementptr inbounds nuw i8, ptr %25, i64 40
  %27 = load ptr, ptr %26, align 8
  %28 = getelementptr inbounds nuw i8, ptr %25, i64 8
  %29 = load i32, ptr %28, align 8
  %30 = tail call i32 @tvb_captured_length_remaining(ptr noundef %27, i32 noundef %29) #11
  %31 = icmp slt i32 %30, 0
  br i1 %31, label %dfvm_get_raw_fvalue.exit.us.i.us.us, label %32

32:                                               ; preds = %.lr.ph.split.us.i.us.us
  %33 = getelementptr inbounds nuw i8, ptr %25, i64 12
  %34 = load i32, ptr %33, align 4
  %spec.select.i.us.i.us.us = tail call i32 @llvm.smin.i32(i32 %34, i32 %30)
  %35 = tail call ptr @g_byte_array_new() #11
  %36 = load ptr, ptr %26, align 8
  %37 = load i32, ptr %28, align 8
  %38 = tail call ptr @tvb_get_ptr(ptr noundef %36, i32 noundef %37, i32 noundef %spec.select.i.us.i.us.us) #11
  %39 = tail call ptr @g_byte_array_append(ptr noundef %35, ptr noundef %38, i32 noundef %spec.select.i.us.i.us.us) #11
  %40 = tail call ptr @fvalue_new(i32 noundef 30) #11
  tail call void @fvalue_set_byte_array(ptr noundef %40, ptr noundef %35) #11
  br label %dfvm_get_raw_fvalue.exit.us.i.us.us

dfvm_get_raw_fvalue.exit.us.i.us.us:              ; preds = %32, %.lr.ph.split.us.i.us.us
  %.020.us.i.us.us = phi ptr [ %40, %32 ], [ null, %.lr.ph.split.us.i.us.us ]
  tail call void @df_cell_append(ptr noundef %13, ptr noundef %.020.us.i.us.us) #11
  %indvars.iv.next6.i.us.us = add nuw nsw i64 %indvars.iv5.i.us.us, 1
  %41 = load i32, ptr %20, align 8
  %42 = zext i32 %41 to i64
  %43 = icmp samesign ult i64 %indvars.iv.next6.i.us.us, %42
  br i1 %43, label %.lr.ph.split.us.i.us.us, label %read_tree_finfos.exit.us.us, !llvm.loop !25

read_tree_finfos.exit.us.us:                      ; preds = %dfvm_get_raw_fvalue.exit.us.i.us.us, %19, %.lr.ph.split.us.split.us
  %44 = getelementptr inbounds nuw i8, ptr %.0205.us.us, i64 64
  %45 = load ptr, ptr %44, align 8
  %.not23.us.us = icmp eq ptr %45, null
  br i1 %.not23.us.us, label %._crit_edge, label %.lr.ph.split.us.split.us, !llvm.loop !26

.lr.ph.split.us.split:                            ; preds = %.lr.ph.split.us, %read_tree_finfos.exit.us
  %.0205.us = phi ptr [ %62, %read_tree_finfos.exit.us ], [ %.8.val, %.lr.ph.split.us ]
  %46 = getelementptr i8, ptr %.0205.us, i64 48
  %.020.val.us = load i32, ptr %46, align 8
  %47 = tail call ptr @proto_get_finfo_ptr_array(ptr noundef %1, i32 noundef %.020.val.us) #11
  %48 = icmp eq ptr %47, null
  br i1 %48, label %read_tree_finfos.exit.us, label %49

49:                                               ; preds = %.lr.ph.split.us.split
  %50 = getelementptr inbounds nuw i8, ptr %47, i64 8
  %51 = load i32, ptr %50, align 8
  %52 = icmp eq i32 %51, 0
  br i1 %52, label %read_tree_finfos.exit.us, label %dfvm_get_raw_fvalue.exit.i.us

dfvm_get_raw_fvalue.exit.i.us:                    ; preds = %49, %dfvm_get_raw_fvalue.exit.i.us
  %indvars.iv.i.us = phi i64 [ %indvars.iv.next.i.us, %dfvm_get_raw_fvalue.exit.i.us ], [ 0, %49 ]
  %53 = load ptr, ptr %47, align 8
  %54 = getelementptr ptr, ptr %53, i64 %indvars.iv.i.us
  %55 = load ptr, ptr %54, align 8
  %56 = getelementptr inbounds nuw i8, ptr %55, i64 48
  %57 = load ptr, ptr %56, align 8
  tail call void @df_cell_append(ptr noundef %13, ptr noundef %57) #11
  %indvars.iv.next.i.us = add nuw nsw i64 %indvars.iv.i.us, 1
  %58 = load i32, ptr %50, align 8
  %59 = zext i32 %58 to i64
  %60 = icmp samesign ult i64 %indvars.iv.next.i.us, %59
  br i1 %60, label %dfvm_get_raw_fvalue.exit.i.us, label %read_tree_finfos.exit.us, !llvm.loop !25

read_tree_finfos.exit.us:                         ; preds = %dfvm_get_raw_fvalue.exit.i.us, %49, %.lr.ph.split.us.split
  %61 = getelementptr inbounds nuw i8, ptr %.0205.us, i64 64
  %62 = load ptr, ptr %61, align 8
  %.not23.us = icmp eq ptr %62, null
  br i1 %.not23.us, label %._crit_edge, label %.lr.ph.split.us.split, !llvm.loop !26

.lr.ph.split:                                     ; preds = %.lr.ph, %read_tree_finfos.exit
  %.0205 = phi ptr [ %73, %read_tree_finfos.exit ], [ %.8.val, %.lr.ph ]
  %63 = getelementptr i8, ptr %.0205, i64 48
  %.020.val = load i32, ptr %63, align 8
  %64 = tail call ptr @proto_get_finfo_ptr_array(ptr noundef %1, i32 noundef %.020.val) #11
  %65 = icmp eq ptr %64, null
  br i1 %65, label %read_tree_finfos.exit, label %66

66:                                               ; preds = %.lr.ph.split
  %67 = getelementptr inbounds nuw i8, ptr %64, i64 8
  %68 = load i32, ptr %67, align 8
  %69 = icmp eq i32 %68, 0
  br i1 %69, label %read_tree_finfos.exit, label %70

70:                                               ; preds = %66
  %71 = tail call fastcc i64 @filter_finfo_fvalues(ptr noundef %13, ptr noundef %64, ptr noundef readonly %.021, i1 noundef zeroext %4)
  br label %read_tree_finfos.exit

read_tree_finfos.exit:                            ; preds = %.lr.ph.split, %66, %70
  %72 = getelementptr inbounds nuw i8, ptr %.0205, i64 64
  %73 = load ptr, ptr %72, align 8
  %.not23 = icmp eq ptr %73, null
  br i1 %.not23, label %._crit_edge, label %.lr.ph.split, !llvm.loop !26

._crit_edge:                                      ; preds = %read_tree_finfos.exit, %read_tree_finfos.exit.us, %read_tree_finfos.exit.us.us, %15, %9
  %74 = tail call zeroext i1 @df_cell_is_empty(ptr noundef %13) #11
  %.0 = xor i1 %74, true
  ret i1 %.0
}